; Function Attrs: mustprogress uwtable
define dso_local noundef i32 @_Z9find_factRKSt6vectorIPK4FactSaIS2_EES2_(ptr nocapture noundef nonnull readonly align 8 dereferenceable(24) %0, ptr noundef %1) local_unnamed_addr #8 {
  %3 = getelementptr inbounds i8, ptr %0, i64 8
  %4 = load ptr, ptr %3, align 8
  %5 = load ptr, ptr %0, align 8
  %.not = icmp eq ptr %4, %5
  br i1 %.not, label %.loopexit, label %.lr.ph

.lr.ph:                                           ; preds = %2, %15
  %6 = phi ptr [ %18, %15 ], [ %5, %2 ]
  %.09 = phi i64 [ %16, %15 ], [ 0, %2 ]
  %7 = getelementptr inbounds ptr, ptr %6, i64 %.09
  %8 = load ptr, ptr %7, align 8
  %9 = load ptr, ptr %1, align 8
  %10 = getelementptr inbounds i8, ptr %9, i64 96
  %11 = load ptr, ptr %10, align 8
  %12 = tail call noundef zeroext i1 %11(ptr noundef nonnull align 8 dereferenceable(12) %1, ptr noundef nonnull align 8 dereferenceable(12) %8)
  br i1 %12, label %13, label %15

13:                                               ; preds = %.lr.ph
  %14 = trunc i64 %.09 to i32
  br label %.loopexit

15:                                               ; preds = %.lr.ph
  %16 = add nuw i64 %.09, 1
  %17 = load ptr, ptr %3, align 8
  %18 = load ptr, ptr %0, align 8
  %19 = ptrtoint ptr %17 to i64
  %20 = ptrtoint ptr %18 to i64
  %21 = sub i64 %19, %20
  %22 = ashr exact i64 %21, 3
  %23 = icmp ult i64 %16, %22
  br i1 %23, label %.lr.ph, label %.loopexit, !llvm.loop !10

.loopexit:                                        ; preds = %15, %2, %13
  %.07 = phi i32 [ %14, %13 ], [ -1, %2 ], [ -1, %15 ]
  ret i32 %.07
}